target datalayout = "e-m:e-p270:32:32-p271:32:32-p272:64:64-i64:64-i128:128-f80:128-n8:16:32:64-S128"
target triple = "x86_64-unknown-linux-gnu"

%struct.RAMBlock = type { %struct.rcu_head, ptr, ptr, ptr, i64, i64, i64, ptr, i32, [256 x i8], %struct.anon.4, %struct.anon.5, i32, i64, i64, ptr, ptr, ptr, i8, i64 }
%struct.rcu_head = type { ptr, ptr }
%struct.anon.4 = type { ptr, ptr }
%struct.anon.5 = type { ptr }
%struct.timeval = type { i64, i64 }

@trace_events_enabled_count = external global i32, align 4
@_TRACE_POSTCOPY_INIT_RANGE_DSTATE = external global i16, align 2
@message_with_timestamp = external global i8, align 1
@.str.30 = private unnamed_addr constant [67 x i8] c"%d@%zu.%06zu:postcopy_init_range %s: %p offset=0x%zx length=0x%zx\0A\00", align 1
@.str.31 = private unnamed_addr constant [54 x i8] c"postcopy_init_range %s: %p offset=0x%zx length=0x%zx\0A\00", align 1
@qemu_loglevel = external global i32, align 4

; Function Attrs: nounwind sspstrong uwtable
define internal zeroext i1 @qemu_loglevel_mask(i32 noundef %mask) #0 {
entry:
  %mask.addr = alloca i32, align 4
  store i32 %mask, ptr %mask.addr, align 4
  %0 = load i32, ptr @qemu_loglevel, align 4
  %1 = load i32, ptr %mask.addr, align 4
  %and = and i32 %0, %1
  %cmp = icmp ne i32 %and, 0
  ret i1 %cmp
}

; Function Attrs: nounwind sspstrong uwtable
define internal void @_nocheck__trace_postcopy_init_range(ptr noundef %ramblock, ptr noundef %host_addr, i64 noundef %offset, i64 noundef %length) #0 {
entry:
  %ramblock.addr = alloca ptr, align 8
  %host_addr.addr = alloca ptr, align 8
  %offset.addr = alloca i64, align 8
  %length.addr = alloca i64, align 8
  %_now = alloca %struct.timeval, align 8
  store ptr %ramblock, ptr %ramblock.addr, align 8
  store ptr %host_addr, ptr %host_addr.addr, align 8
  store i64 %offset, ptr %offset.addr, align 8
  store i64 %length, ptr %length.addr, align 8
  %0 = load i32, ptr @trace_events_enabled_count, align 4
  %tobool = icmp ne i32 %0, 0
  %lnot = xor i1 %tobool, true
  %lnot1 = xor i1 %lnot, true
  %lnot.ext = zext i1 %lnot1 to i32
  %conv = sext i32 %lnot.ext to i64
  %tobool2 = icmp ne i64 %conv, 0
  br i1 %tobool2, label %land.lhs.true, label %if.end11

land.lhs.true:                                    ; preds = %entry
  %1 = load i16, ptr @_TRACE_POSTCOPY_INIT_RANGE_DSTATE, align 2
  %conv3 = zext i16 %1 to i32
  %tobool4 = icmp ne i32 %conv3, 0
  br i1 %tobool4, label %land.lhs.true5, label %if.end11

land.lhs.true5:                                   ; preds = %land.lhs.true
  %call = call zeroext i1 @qemu_loglevel_mask(i32 noundef 32768)
  br i1 %call, label %if.then, label %if.end11

if.then:                                          ; preds = %land.lhs.true5
  %2 = load i8, ptr @message_with_timestamp, align 1
  %tobool7 = trunc i8 %2 to i1
  br i1 %tobool7, label %if.then8, label %if.else

if.then8:                                         ; preds = %if.then
  %call9 = call i32 @gettimeofday(ptr noundef %_now, ptr noundef null) #11
  %call10 = call i32 @qemu_get_thread_id()
  %tv_sec = getelementptr inbounds %struct.timeval, ptr %_now, i32 0, i32 0
  %3 = load i64, ptr %tv_sec, align 8
  %tv_usec = getelementptr inbounds %struct.timeval, ptr %_now, i32 0, i32 1
  %4 = load i64, ptr %tv_usec, align 8
  %5 = load ptr, ptr %ramblock.addr, align 8
  %6 = load ptr, ptr %host_addr.addr, align 8
  %7 = load i64, ptr %offset.addr, align 8
  %8 = load i64, ptr %length.addr, align 8
  call void (ptr, ...) @qemu_log(ptr noundef @.str.30, i32 noundef %call10, i64 noundef %3, i64 noundef %4, ptr noundef %5, ptr noundef %6, i64 noundef %7, i64 noundef %8)
  br label %if.end

if.else:                                          ; preds = %if.then
  %9 = load ptr, ptr %ramblock.addr, align 8
  %10 = load ptr, ptr %host_addr.addr, align 8
  %11 = load i64, ptr %offset.addr, align 8
  %12 = load i64, ptr %length.addr, align 8
  call void (ptr, ...) @qemu_log(ptr noundef @.str.31, ptr noundef %9, ptr noundef %10, i64 noundef %11, i64 noundef %12)
  br label %if.end

if.end:                                           ; preds = %if.else, %if.then8
  br label %if.end11

if.end11:                                         ; preds = %if.end, %land.lhs.true5, %land.lhs.true, %entry
  ret void
}

; Function Attrs: nounwind sspstrong uwtable
define internal void @trace_postcopy_init_range(ptr noundef %ramblock, ptr noundef %host_addr, i64 noundef %offset, i64 noundef %length) #0 {
entry:
  %ramblock.addr = alloca ptr, align 8
  %host_addr.addr = alloca ptr, align 8
  %offset.addr = alloca i64, align 8
  %length.addr = alloca i64, align 8
  store ptr %ramblock, ptr %ramblock.addr, align 8
  store ptr %host_addr, ptr %host_addr.addr, align 8
  store i64 %offset, ptr %offset.addr, align 8
  store i64 %length, ptr %length.addr, align 8
  %0 = load ptr, ptr %ramblock.addr, align 8
  %1 = load ptr, ptr %host_addr.addr, align 8
  %2 = load i64, ptr %offset.addr, align 8
  %3 = load i64, ptr %length.addr, align 8
  call void @_nocheck__trace_postcopy_init_range(ptr noundef %0, ptr noundef %1, i64 noundef %2, i64 noundef %3)
  ret void
}

; Function Attrs: nounwind sspstrong uwtable
define internal i32 @init_range(ptr noundef %rb, ptr noundef %opaque) #0 {
entry:
  %retval = alloca i32, align 4
  %rb.addr = alloca ptr, align 8
  %opaque.addr = alloca ptr, align 8
  %block_name = alloca ptr, align 8
  %host_addr = alloca ptr, align 8
  %offset = alloca i64, align 8
  %length = alloca i64, align 8
  store ptr %rb, ptr %rb.addr, align 8
  store ptr %opaque, ptr %opaque.addr, align 8
  %0 = load ptr, ptr %rb.addr, align 8
  %call = call ptr @qemu_ram_get_idstr(ptr noundef %0)
  store ptr %call, ptr %block_name, align 8
  %1 = load ptr, ptr %rb.addr, align 8
  %call1 = call ptr @qemu_ram_get_host_addr(ptr noundef %1)
  store ptr %call1, ptr %host_addr, align 8
  %2 = load ptr, ptr %rb.addr, align 8
  %call2 = call i64 @qemu_ram_get_offset(ptr noundef %2)
  store i64 %call2, ptr %offset, align 8
  %3 = load ptr, ptr %rb.addr, align 8
  %call3 = call i64 @qemu_ram_get_used_length(ptr noundef %3)
  store i64 %call3, ptr %length, align 8
  %4 = load ptr, ptr %block_name, align 8
  %5 = load ptr, ptr %host_addr, align 8
  %6 = load i64, ptr %offset, align 8
  %7 = load i64, ptr %length, align 8
  call void @trace_postcopy_init_range(ptr noundef %4, ptr noundef %5, i64 noundef %6, i64 noundef %7)
  %8 = load i64, ptr %length, align 8
  %9 = load ptr, ptr %rb.addr, align 8
  %postcopy_length = getelementptr inbounds %struct.RAMBlock, ptr %9, i32 0, i32 19
  store i64 %8, ptr %postcopy_length, align 8
  %10 = load ptr, ptr %block_name, align 8
  %11 = load i64, ptr %length, align 8
  %call4 = call i32 @ram_discard_range(ptr noundef %10, i64 noundef 0, i64 noundef %11)
  %tobool = icmp ne i32 %call4, 0
  br i1 %tobool, label %if.then, label %if.end

if.then:                                          ; preds = %entry
  store i32 -1, ptr %retval, align 4
  br label %return

if.end:                                           ; preds = %entry
  store i32 0, ptr %retval, align 4
  br label %return

return:                                           ; preds = %if.end, %if.then
  %12 = load i32, ptr %retval, align 4
  ret i32 %12
}